target datalayout = "e-m:e-p270:32:32-p271:32:32-p272:64:64-i64:64-i128:128-f80:128-n8:16:32:64-S128"
target triple = "x86_64-pc-linux-gnu"

%"class.Yosys::hashlib::pool" = type <{ %"class.std::vector.3", %"class.std::vector.8", [8 x i8] }>
%"class.std::vector.3" = type { %"struct.std::_Vector_base.4" }
%"struct.std::_Vector_base.4" = type { %"struct.std::_Vector_base<int, std::allocator<int>>::_Vector_impl" }
%"struct.std::_Vector_base<int, std::allocator<int>>::_Vector_impl" = type { %"struct.std::_Vector_base<int, std::allocator<int>>::_Vector_impl_data" }
%"struct.std::_Vector_base<int, std::allocator<int>>::_Vector_impl_data" = type { ptr, ptr, ptr }
%"class.std::vector.8" = type { %"struct.std::_Vector_base.9" }
%"struct.std::_Vector_base.9" = type { %"struct.std::_Vector_base<Yosys::hashlib::pool<Yosys::RTLIL::Monitor *>::entry_t, std::allocator<Yosys::hashlib::pool<Yosys::RTLIL::Monitor *>::entry_t>>::_Vector_impl" }
%"struct.std::_Vector_base<Yosys::hashlib::pool<Yosys::RTLIL::Monitor *>::entry_t, std::allocator<Yosys::hashlib::pool<Yosys::RTLIL::Monitor *>::entry_t>>::_Vector_impl" = type { %"struct.std::_Vector_base<Yosys::hashlib::pool<Yosys::RTLIL::Monitor *>::entry_t, std::allocator<Yosys::hashlib::pool<Yosys::RTLIL::Monitor *>::entry_t>>::_Vector_impl_data" }
%"struct.std::_Vector_base<Yosys::hashlib::pool<Yosys::RTLIL::Monitor *>::entry_t, std::allocator<Yosys::hashlib::pool<Yosys::RTLIL::Monitor *>::entry_t>>::_Vector_impl_data" = type { ptr, ptr, ptr }
%"class.std::vector.25" = type { %"struct.std::_Vector_base.26" }
%"struct.std::_Vector_base.26" = type { %"struct.std::_Vector_base<Yosys::RTLIL::Binding *, std::allocator<Yosys::RTLIL::Binding *>>::_Vector_impl" }
%"struct.std::_Vector_base<Yosys::RTLIL::Binding *, std::allocator<Yosys::RTLIL::Binding *>>::_Vector_impl" = type { %"struct.std::_Vector_base<Yosys::RTLIL::Binding *, std::allocator<Yosys::RTLIL::Binding *>>::_Vector_impl_data" }
%"struct.std::_Vector_base<Yosys::RTLIL::Binding *, std::allocator<Yosys::RTLIL::Binding *>>::_Vector_impl_data" = type { ptr, ptr, ptr }
%"struct.Yosys::RTLIL::AttrObject" = type { %"class.Yosys::hashlib::dict.49" }
%"struct.Yosys::RTLIL::IdString" = type { i32 }
%"class.Yosys::hashlib::dict.49" = type <{ %"class.std::vector.3", %"class.std::vector.50", [8 x i8] }>
%"class.std::vector.50" = type { %"struct.std::_Vector_base.51" }
%"struct.std::_Vector_base.51" = type { %"struct.std::_Vector_base<Yosys::hashlib::dict<Yosys::RTLIL::IdString, Yosys::RTLIL::Const>::entry_t, std::allocator<Yosys::hashlib::dict<Yosys::RTLIL::IdString, Yosys::RTLIL::Const>::entry_t>>::_Vector_impl" }
%"struct.std::_Vector_base<Yosys::hashlib::dict<Yosys::RTLIL::IdString, Yosys::RTLIL::Const>::entry_t, std::allocator<Yosys::hashlib::dict<Yosys::RTLIL::IdString, Yosys::RTLIL::Const>::entry_t>>::_Vector_impl" = type { %"struct.std::_Vector_base<Yosys::hashlib::dict<Yosys::RTLIL::IdString, Yosys::RTLIL::Const>::entry_t, std::allocator<Yosys::hashlib::dict<Yosys::RTLIL::IdString, Yosys::RTLIL::Const>::entry_t>>::_Vector_impl_data" }
%"struct.std::_Vector_base<Yosys::hashlib::dict<Yosys::RTLIL::IdString, Yosys::RTLIL::Const>::entry_t, std::allocator<Yosys::hashlib::dict<Yosys::RTLIL::IdString, Yosys::RTLIL::Const>::entry_t>>::_Vector_impl_data" = type { ptr, ptr, ptr }
%"struct.std::pair.125" = type { %"struct.Yosys::RTLIL::SigSpec", %"struct.Yosys::RTLIL::SigSpec" }
%"struct.Yosys::RTLIL::SigSpec" = type { i32, i32, %"class.std::vector.115", %"class.std::vector.120" }
%"class.std::vector.115" = type { %"struct.std::_Vector_base.116" }
%"struct.std::_Vector_base.116" = type { %"struct.std::_Vector_base<Yosys::RTLIL::SigChunk, std::allocator<Yosys::RTLIL::SigChunk>>::_Vector_impl" }
%"struct.std::_Vector_base<Yosys::RTLIL::SigChunk, std::allocator<Yosys::RTLIL::SigChunk>>::_Vector_impl" = type { %"struct.std::_Vector_base<Yosys::RTLIL::SigChunk, std::allocator<Yosys::RTLIL::SigChunk>>::_Vector_impl_data" }
%"struct.std::_Vector_base<Yosys::RTLIL::SigChunk, std::allocator<Yosys::RTLIL::SigChunk>>::_Vector_impl_data" = type { ptr, ptr, ptr }
%"class.std::vector.120" = type { %"struct.std::_Vector_base.121" }
%"struct.std::_Vector_base.121" = type { %"struct.std::_Vector_base<Yosys::RTLIL::SigBit, std::allocator<Yosys::RTLIL::SigBit>>::_Vector_impl" }
%"struct.std::_Vector_base<Yosys::RTLIL::SigBit, std::allocator<Yosys::RTLIL::SigBit>>::_Vector_impl" = type { %"struct.std::_Vector_base<Yosys::RTLIL::SigBit, std::allocator<Yosys::RTLIL::SigBit>>::_Vector_impl_data" }
%"struct.std::_Vector_base<Yosys::RTLIL::SigBit, std::allocator<Yosys::RTLIL::SigBit>>::_Vector_impl_data" = type { ptr, ptr, ptr }
%"class.__gnu_cxx::__normal_iterator.127" = type { ptr }
%"struct.Yosys::RTLIL::Module" = type { ptr, %"struct.Yosys::RTLIL::AttrObject", i32, ptr, %"class.Yosys::hashlib::pool", i32, i32, %"class.Yosys::hashlib::dict.56", %"class.Yosys::hashlib::dict.63", %"class.std::vector.70", %"class.std::vector.25", %"struct.Yosys::RTLIL::IdString", [4 x i8], %"class.Yosys::hashlib::idict", %"class.Yosys::hashlib::dict.49", %"class.Yosys::hashlib::dict.82", %"class.Yosys::hashlib::dict.89", %"class.std::vector.96", %"class.Yosys::hashlib::pool.101" }
%"class.Yosys::hashlib::dict.56" = type <{ %"class.std::vector.3", %"class.std::vector.57", [8 x i8] }>
%"class.std::vector.57" = type { %"struct.std::_Vector_base.58" }
%"struct.std::_Vector_base.58" = type { %"struct.std::_Vector_base<Yosys::hashlib::dict<Yosys::RTLIL::IdString, Yosys::RTLIL::Wire *>::entry_t, std::allocator<Yosys::hashlib::dict<Yosys::RTLIL::IdString, Yosys::RTLIL::Wire *>::entry_t>>::_Vector_impl" }
%"struct.std::_Vector_base<Yosys::hashlib::dict<Yosys::RTLIL::IdString, Yosys::RTLIL::Wire *>::entry_t, std::allocator<Yosys::hashlib::dict<Yosys::RTLIL::IdString, Yosys::RTLIL::Wire *>::entry_t>>::_Vector_impl" = type { %"struct.std::_Vector_base<Yosys::hashlib::dict<Yosys::RTLIL::IdString, Yosys::RTLIL::Wire *>::entry_t, std::allocator<Yosys::hashlib::dict<Yosys::RTLIL::IdString, Yosys::RTLIL::Wire *>::entry_t>>::_Vector_impl_data" }
%"struct.std::_Vector_base<Yosys::hashlib::dict<Yosys::RTLIL::IdString, Yosys::RTLIL::Wire *>::entry_t, std::allocator<Yosys::hashlib::dict<Yosys::RTLIL::IdString, Yosys::RTLIL::Wire *>::entry_t>>::_Vector_impl_data" = type { ptr, ptr, ptr }
%"class.Yosys::hashlib::dict.63" = type <{ %"class.std::vector.3", %"class.std::vector.64", [8 x i8] }>
%"class.std::vector.64" = type { %"struct.std::_Vector_base.65" }
%"struct.std::_Vector_base.65" = type { %"struct.std::_Vector_base<Yosys::hashlib::dict<Yosys::RTLIL::IdString, Yosys::RTLIL::Cell *>::entry_t, std::allocator<Yosys::hashlib::dict<Yosys::RTLIL::IdString, Yosys::RTLIL::Cell *>::entry_t>>::_Vector_impl" }
%"struct.std::_Vector_base<Yosys::hashlib::dict<Yosys::RTLIL::IdString, Yosys::RTLIL::Cell *>::entry_t, std::allocator<Yosys::hashlib::dict<Yosys::RTLIL::IdString, Yosys::RTLIL::Cell *>::entry_t>>::_Vector_impl" = type { %"struct.std::_Vector_base<Yosys::hashlib::dict<Yosys::RTLIL::IdString, Yosys::RTLIL::Cell *>::entry_t, std::allocator<Yosys::hashlib::dict<Yosys::RTLIL::IdString, Yosys::RTLIL::Cell *>::entry_t>>::_Vector_impl_data" }
%"struct.std::_Vector_base<Yosys::hashlib::dict<Yosys::RTLIL::IdString, Yosys::RTLIL::Cell *>::entry_t, std::allocator<Yosys::hashlib::dict<Yosys::RTLIL::IdString, Yosys::RTLIL::Cell *>::entry_t>>::_Vector_impl_data" = type { ptr, ptr, ptr }
%"class.std::vector.70" = type { %"struct.std::_Vector_base.71" }
%"struct.std::_Vector_base.71" = type { %"struct.std::_Vector_base<std::pair<Yosys::RTLIL::SigSpec, Yosys::RTLIL::SigSpec>, std::allocator<std::pair<Yosys::RTLIL::SigSpec, Yosys::RTLIL::SigSpec>>>::_Vector_impl" }
%"struct.std::_Vector_base<std::pair<Yosys::RTLIL::SigSpec, Yosys::RTLIL::SigSpec>, std::allocator<std::pair<Yosys::RTLIL::SigSpec, Yosys::RTLIL::SigSpec>>>::_Vector_impl" = type { %"struct.std::_Vector_base<std::pair<Yosys::RTLIL::SigSpec, Yosys::RTLIL::SigSpec>, std::allocator<std::pair<Yosys::RTLIL::SigSpec, Yosys::RTLIL::SigSpec>>>::_Vector_impl_data" }
%"struct.std::_Vector_base<std::pair<Yosys::RTLIL::SigSpec, Yosys::RTLIL::SigSpec>, std::allocator<std::pair<Yosys::RTLIL::SigSpec, Yosys::RTLIL::SigSpec>>>::_Vector_impl_data" = type { ptr, ptr, ptr }
%"class.Yosys::hashlib::idict" = type { %"class.Yosys::hashlib::pool.75" }
%"class.Yosys::hashlib::pool.75" = type <{ %"class.std::vector.3", %"class.std::vector.76", [8 x i8] }>
%"class.std::vector.76" = type { %"struct.std::_Vector_base.77" }
%"struct.std::_Vector_base.77" = type { %"struct.std::_Vector_base<Yosys::hashlib::pool<Yosys::RTLIL::IdString>::entry_t, std::allocator<Yosys::hashlib::pool<Yosys::RTLIL::IdString>::entry_t>>::_Vector_impl" }
%"struct.std::_Vector_base<Yosys::hashlib::pool<Yosys::RTLIL::IdString>::entry_t, std::allocator<Yosys::hashlib::pool<Yosys::RTLIL::IdString>::entry_t>>::_Vector_impl" = type { %"struct.std::_Vector_base<Yosys::hashlib::pool<Yosys::RTLIL::IdString>::entry_t, std::allocator<Yosys::hashlib::pool<Yosys::RTLIL::IdString>::entry_t>>::_Vector_impl_data" }
%"struct.std::_Vector_base<Yosys::hashlib::pool<Yosys::RTLIL::IdString>::entry_t, std::allocator<Yosys::hashlib::pool<Yosys::RTLIL::IdString>::entry_t>>::_Vector_impl_data" = type { ptr, ptr, ptr }
%"class.Yosys::hashlib::dict.82" = type <{ %"class.std::vector.3", %"class.std::vector.83", [8 x i8] }>
%"class.std::vector.83" = type { %"struct.std::_Vector_base.84" }
%"struct.std::_Vector_base.84" = type { %"struct.std::_Vector_base<Yosys::hashlib::dict<Yosys::RTLIL::IdString, Yosys::RTLIL::Memory *>::entry_t, std::allocator<Yosys::hashlib::dict<Yosys::RTLIL::IdString, Yosys::RTLIL::Memory *>::entry_t>>::_Vector_impl" }
%"struct.std::_Vector_base<Yosys::hashlib::dict<Yosys::RTLIL::IdString, Yosys::RTLIL::Memory *>::entry_t, std::allocator<Yosys::hashlib::dict<Yosys::RTLIL::IdString, Yosys::RTLIL::Memory *>::entry_t>>::_Vector_impl" = type { %"struct.std::_Vector_base<Yosys::hashlib::dict<Yosys::RTLIL::IdString, Yosys::RTLIL::Memory *>::entry_t, std::allocator<Yosys::hashlib::dict<Yosys::RTLIL::IdString, Yosys::RTLIL::Memory *>::entry_t>>::_Vector_impl_data" }
%"struct.std::_Vector_base<Yosys::hashlib::dict<Yosys::RTLIL::IdString, Yosys::RTLIL::Memory *>::entry_t, std::allocator<Yosys::hashlib::dict<Yosys::RTLIL::IdString, Yosys::RTLIL::Memory *>::entry_t>>::_Vector_impl_data" = type { ptr, ptr, ptr }
%"class.Yosys::hashlib::dict.89" = type <{ %"class.std::vector.3", %"class.std::vector.90", [8 x i8] }>
%"class.std::vector.90" = type { %"struct.std::_Vector_base.91" }
%"struct.std::_Vector_base.91" = type { %"struct.std::_Vector_base<Yosys::hashlib::dict<Yosys::RTLIL::IdString, Yosys::RTLIL::Process *>::entry_t, std::allocator<Yosys::hashlib::dict<Yosys::RTLIL::IdString, Yosys::RTLIL::Process *>::entry_t>>::_Vector_impl" }
%"struct.std::_Vector_base<Yosys::hashlib::dict<Yosys::RTLIL::IdString, Yosys::RTLIL::Process *>::entry_t, std::allocator<Yosys::hashlib::dict<Yosys::RTLIL::IdString, Yosys::RTLIL::Process *>::entry_t>>::_Vector_impl" = type { %"struct.std::_Vector_base<Yosys::hashlib::dict<Yosys::RTLIL::IdString, Yosys::RTLIL::Process *>::entry_t, std::allocator<Yosys::hashlib::dict<Yosys::RTLIL::IdString, Yosys::RTLIL::Process *>::entry_t>>::_Vector_impl_data" }
%"struct.std::_Vector_base<Yosys::hashlib::dict<Yosys::RTLIL::IdString, Yosys::RTLIL::Process *>::entry_t, std::allocator<Yosys::hashlib::dict<Yosys::RTLIL::IdString, Yosys::RTLIL::Process *>::entry_t>>::_Vector_impl_data" = type { ptr, ptr, ptr }
%"class.std::vector.96" = type { %"struct.std::_Vector_base.97" }
%"struct.std::_Vector_base.97" = type { %"struct.std::_Vector_base<Yosys::RTLIL::IdString, std::allocator<Yosys::RTLIL::IdString>>::_Vector_impl" }
%"struct.std::_Vector_base<Yosys::RTLIL::IdString, std::allocator<Yosys::RTLIL::IdString>>::_Vector_impl" = type { %"struct.std::_Vector_base<Yosys::RTLIL::IdString, std::allocator<Yosys::RTLIL::IdString>>::_Vector_impl_data" }
%"struct.std::_Vector_base<Yosys::RTLIL::IdString, std::allocator<Yosys::RTLIL::IdString>>::_Vector_impl_data" = type { ptr, ptr, ptr }
%"class.Yosys::hashlib::pool.101" = type <{ %"class.std::vector.3", %"class.std::vector.102", [8 x i8] }>
%"class.std::vector.102" = type { %"struct.std::_Vector_base.103" }
%"struct.std::_Vector_base.103" = type { %"struct.std::_Vector_base<Yosys::hashlib::pool<std::pair<Yosys::RTLIL::Cell *, Yosys::RTLIL::IdString>>::entry_t, std::allocator<Yosys::hashlib::pool<std::pair<Yosys::RTLIL::Cell *, Yosys::RTLIL::IdString>>::entry_t>>::_Vector_impl" }
%"struct.std::_Vector_base<Yosys::hashlib::pool<std::pair<Yosys::RTLIL::Cell *, Yosys::RTLIL::IdString>>::entry_t, std::allocator<Yosys::hashlib::pool<std::pair<Yosys::RTLIL::Cell *, Yosys::RTLIL::IdString>>::entry_t>>::_Vector_impl" = type { %"struct.std::_Vector_base<Yosys::hashlib::pool<std::pair<Yosys::RTLIL::Cell *, Yosys::RTLIL::IdString>>::entry_t, std::allocator<Yosys::hashlib::pool<std::pair<Yosys::RTLIL::Cell *, Yosys::RTLIL::IdString>>::entry_t>>::_Vector_impl_data" }
%"struct.std::_Vector_base<Yosys::hashlib::pool<std::pair<Yosys::RTLIL::Cell *, Yosys::RTLIL::IdString>>::entry_t, std::allocator<Yosys::hashlib::pool<std::pair<Yosys::RTLIL::Cell *, Yosys::RTLIL::IdString>>::entry_t>>::_Vector_impl_data" = type { ptr, ptr, ptr }

@.str.13 = private unnamed_addr constant [39 x i8] c"#TRACE# New connections in module %s:\0A\00", align 1
@.str.14 = private unnamed_addr constant [15 x i8] c"##    %s = %s\0A\00", align 1

; Function Attrs: mustprogress nounwind uwtable
define linkonce_odr noundef nonnull align 8 dereferenceable(8) ptr @_ZNK9__gnu_cxx17__normal_iteratorIPKSt4pairIN5Yosys5RTLIL7SigSpecES4_ESt6vectorIS5_SaIS5_EEE4baseEv(ptr noundef nonnull align 8 dereferenceable(8) %0) #6 comdat align 2 {
  %2 = alloca ptr, align 8
  store ptr %0, ptr %2, align 8, !tbaa !108
  %3 = load ptr, ptr %2, align 8
  %4 = getelementptr inbounds nuw %"class.__gnu_cxx::__normal_iterator.127", ptr %3, i32 0, i32 0
  ret ptr %4
}

; Function Attrs: mustprogress nounwind uwtable
define linkonce_odr void @_ZN9__gnu_cxx17__normal_iteratorIPKSt4pairIN5Yosys5RTLIL7SigSpecES4_ESt6vectorIS5_SaIS5_EEEC2ERKS7_(ptr noundef nonnull align 8 dereferenceable(8) %0, ptr noundef nonnull align 8 dereferenceable(8) %1) unnamed_addr #6 comdat align 2 {
  %3 = alloca ptr, align 8
  %4 = alloca ptr, align 8
  store ptr %0, ptr %3, align 8, !tbaa !108
  store ptr %1, ptr %4, align 8, !tbaa !112
  %5 = load ptr, ptr %3, align 8
  %6 = getelementptr inbounds nuw %"class.__gnu_cxx::__normal_iterator.127", ptr %5, i32 0, i32 0
  %7 = load ptr, ptr %4, align 8, !tbaa !112
  %8 = load ptr, ptr %7, align 8, !tbaa !104
  store ptr %8, ptr %6, align 8, !tbaa !110
  ret void
}

; Function Attrs: mustprogress nounwind uwtable
define linkonce_odr noundef nonnull align 8 dereferenceable(8) ptr @_ZN9__gnu_cxx17__normal_iteratorIPKSt4pairIN5Yosys5RTLIL7SigSpecES4_ESt6vectorIS5_SaIS5_EEEppEv(ptr noundef nonnull align 8 dereferenceable(8) %0) #6 comdat align 2 {
  %2 = alloca ptr, align 8
  store ptr %0, ptr %2, align 8, !tbaa !108
  %3 = load ptr, ptr %2, align 8
  %4 = getelementptr inbounds nuw %"class.__gnu_cxx::__normal_iterator.127", ptr %3, i32 0, i32 0
  %5 = load ptr, ptr %4, align 8, !tbaa !110
  %6 = getelementptr inbounds nuw %"struct.std::pair.125", ptr %5, i32 1
  store ptr %6, ptr %4, align 8, !tbaa !110
  ret ptr %3
}

; Function Attrs: mustprogress nounwind uwtable
define linkonce_odr noundef nonnull align 8 dereferenceable(112) ptr @_ZNK9__gnu_cxx17__normal_iteratorIPKSt4pairIN5Yosys5RTLIL7SigSpecES4_ESt6vectorIS5_SaIS5_EEEdeEv(ptr noundef nonnull align 8 dereferenceable(8) %0) #6 comdat align 2 {
  %2 = alloca ptr, align 8
  store ptr %0, ptr %2, align 8, !tbaa !108
  %3 = load ptr, ptr %2, align 8
  %4 = getelementptr inbounds nuw %"class.__gnu_cxx::__normal_iterator.127", ptr %3, i32 0, i32 0
  %5 = load ptr, ptr %4, align 8, !tbaa !110
  ret ptr %5
}

; Function Attrs: inlinehint mustprogress nounwind uwtable
define linkonce_odr noundef zeroext i1 @_ZN9__gnu_cxxneIPKSt4pairIN5Yosys5RTLIL7SigSpecES4_ESt6vectorIS5_SaIS5_EEEEbRKNS_17__normal_iteratorIT_T0_EESG_(ptr noundef nonnull align 8 dereferenceable(8) %0, ptr noundef nonnull align 8 dereferenceable(8) %1) #7 comdat {
  %3 = alloca ptr, align 8
  %4 = alloca ptr, align 8
  store ptr %0, ptr %3, align 8, !tbaa !108
  store ptr %1, ptr %4, align 8, !tbaa !108
  %5 = load ptr, ptr %3, align 8, !tbaa !108
  %6 = call noundef nonnull align 8 dereferenceable(8) ptr @_ZNK9__gnu_cxx17__normal_iteratorIPKSt4pairIN5Yosys5RTLIL7SigSpecES4_ESt6vectorIS5_SaIS5_EEE4baseEv(ptr noundef nonnull align 8 dereferenceable(8) %5) #3
  %7 = load ptr, ptr %6, align 8, !tbaa !104
  %8 = load ptr, ptr %4, align 8, !tbaa !108
  %9 = call noundef nonnull align 8 dereferenceable(8) ptr @_ZNK9__gnu_cxx17__normal_iteratorIPKSt4pairIN5Yosys5RTLIL7SigSpecES4_ESt6vectorIS5_SaIS5_EEE4baseEv(ptr noundef nonnull align 8 dereferenceable(8) %8) #3
  %10 = load ptr, ptr %9, align 8, !tbaa !104
  %11 = icmp ne ptr %7, %10
  ret i1 %11
}

; Function Attrs: mustprogress nounwind uwtable
define linkonce_odr ptr @_ZNKSt6vectorISt4pairIN5Yosys5RTLIL7SigSpecES3_ESaIS4_EE3endEv(ptr noundef nonnull align 8 dereferenceable(24) %0) #6 comdat align 2 {
  %2 = alloca %"class.__gnu_cxx::__normal_iterator.127", align 8
  %3 = alloca ptr, align 8
  store ptr %0, ptr %3, align 8, !tbaa !106
  %4 = load ptr, ptr %3, align 8
  %5 = getelementptr inbounds nuw %"struct.std::_Vector_base.71", ptr %4, i32 0, i32 0
  %6 = getelementptr inbounds nuw %"struct.std::_Vector_base<std::pair<Yosys::RTLIL::SigSpec, Yosys::RTLIL::SigSpec>, std::allocator<std::pair<Yosys::RTLIL::SigSpec, Yosys::RTLIL::SigSpec>>>::_Vector_impl_data", ptr %5, i32 0, i32 1
  call void @_ZN9__gnu_cxx17__normal_iteratorIPKSt4pairIN5Yosys5RTLIL7SigSpecES4_ESt6vectorIS5_SaIS5_EEEC2ERKS7_(ptr noundef nonnull align 8 dereferenceable(8) %2, ptr noundef nonnull align 8 dereferenceable(8) %6) #3
  %7 = getelementptr inbounds nuw %"class.__gnu_cxx::__normal_iterator.127", ptr %2, i32 0, i32 0
  %8 = load ptr, ptr %7, align 8
  ret ptr %8
}

; Function Attrs: mustprogress nounwind uwtable
define linkonce_odr ptr @_ZNKSt6vectorISt4pairIN5Yosys5RTLIL7SigSpecES3_ESaIS4_EE5beginEv(ptr noundef nonnull align 8 dereferenceable(24) %0) #6 comdat align 2 {
  %2 = alloca %"class.__gnu_cxx::__normal_iterator.127", align 8
  %3 = alloca ptr, align 8
  store ptr %0, ptr %3, align 8, !tbaa !106
  %4 = load ptr, ptr %3, align 8
  %5 = getelementptr inbounds nuw %"struct.std::_Vector_base.71", ptr %4, i32 0, i32 0
  %6 = getelementptr inbounds nuw %"struct.std::_Vector_base<std::pair<Yosys::RTLIL::SigSpec, Yosys::RTLIL::SigSpec>, std::allocator<std::pair<Yosys::RTLIL::SigSpec, Yosys::RTLIL::SigSpec>>>::_Vector_impl_data", ptr %5, i32 0, i32 0
  call void @_ZN9__gnu_cxx17__normal_iteratorIPKSt4pairIN5Yosys5RTLIL7SigSpecES4_ESt6vectorIS5_SaIS5_EEEC2ERKS7_(ptr noundef nonnull align 8 dereferenceable(8) %2, ptr noundef nonnull align 8 dereferenceable(8) %6) #3
  %7 = getelementptr inbounds nuw %"class.__gnu_cxx::__normal_iterator.127", ptr %2, i32 0, i32 0
  %8 = load ptr, ptr %7, align 8
  ret ptr %8
}

; Function Attrs: inlinehint mustprogress uwtable
define internal noundef ptr @_ZN5YosysL6log_idINS_5RTLIL6ModuleEEEPKcPT_S4_(ptr noundef %0, ptr noundef %1) #9 {
  %3 = alloca ptr, align 8
  %4 = alloca ptr, align 8
  %5 = alloca ptr, align 8
  store ptr %0, ptr %4, align 8, !tbaa !74
  store ptr %1, ptr %5, align 8, !tbaa !19
  %6 = load ptr, ptr %5, align 8, !tbaa !19
  %7 = icmp ne ptr %6, null
  br i1 %7, label %8, label %13

8:                                                ; preds = %2
  %9 = load ptr, ptr %4, align 8, !tbaa !74
  %10 = icmp eq ptr %9, null
  br i1 %10, label %11, label %13

11:                                               ; preds = %8
  %12 = load ptr, ptr %5, align 8, !tbaa !19
  store ptr %12, ptr %3, align 8
  br label %17

13:                                               ; preds = %8, %2
  %14 = load ptr, ptr %4, align 8, !tbaa !74
  %15 = getelementptr inbounds nuw %"struct.Yosys::RTLIL::Module", ptr %14, i32 0, i32 11
  %16 = call noundef ptr @_ZN5Yosys6log_idERKNS_5RTLIL8IdStringE(ptr noundef nonnull align 4 dereferenceable(4) %15)
  store ptr %16, ptr %3, align 8
  br label %17

17:                                               ; preds = %13, %11
  %18 = load ptr, ptr %3, align 8
  ret ptr %18
}

; Function Attrs: mustprogress uwtable
define internal void @_ZN12_GLOBAL__N_112TraceMonitor14notify_connectEPN5Yosys5RTLIL6ModuleERKSt6vectorISt4pairINS2_7SigSpecES7_ESaIS8_EE(ptr noundef nonnull align 8 dereferenceable(12) %0, ptr noundef %1, ptr noundef nonnull align 8 dereferenceable(24) %2) unnamed_addr #4 align 2 {
  %4 = alloca ptr, align 8
  %5 = alloca ptr, align 8
  %6 = alloca ptr, align 8
  %7 = alloca ptr, align 8
  %8 = alloca %"class.__gnu_cxx::__normal_iterator.127", align 8
  %9 = alloca %"class.__gnu_cxx::__normal_iterator.127", align 8
  %10 = alloca ptr, align 8
  store ptr %0, ptr %4, align 8, !tbaa !53
  store ptr %1, ptr %5, align 8, !tbaa !74
  store ptr %2, ptr %6, align 8, !tbaa !106
  %11 = load ptr, ptr %5, align 8, !tbaa !74
  %12 = call noundef ptr @_ZN5YosysL6log_idINS_5RTLIL6ModuleEEEPKcPT_S4_(ptr noundef %11, ptr noundef null)
  call void (ptr, ...) @_ZN5Yosys3logEPKcz(ptr noundef @.str.13, ptr noundef %12)
  call void @llvm.lifetime.start.p0(i64 8, ptr %7) #3
  %13 = load ptr, ptr %6, align 8, !tbaa !106
  store ptr %13, ptr %7, align 8, !tbaa !106
  call void @llvm.lifetime.start.p0(i64 8, ptr %8) #3
  %14 = load ptr, ptr %7, align 8, !tbaa !106
  %15 = call ptr @_ZNKSt6vectorISt4pairIN5Yosys5RTLIL7SigSpecES3_ESaIS4_EE5beginEv(ptr noundef nonnull align 8 dereferenceable(24) %14) #3
  %16 = getelementptr inbounds nuw %"class.__gnu_cxx::__normal_iterator.127", ptr %8, i32 0, i32 0
  store ptr %15, ptr %16, align 8
  call void @llvm.lifetime.start.p0(i64 8, ptr %9) #3
  %17 = load ptr, ptr %7, align 8, !tbaa !106
  %18 = call ptr @_ZNKSt6vectorISt4pairIN5Yosys5RTLIL7SigSpecES3_ESaIS4_EE3endEv(ptr noundef nonnull align 8 dereferenceable(24) %17) #3
  %19 = getelementptr inbounds nuw %"class.__gnu_cxx::__normal_iterator.127", ptr %9, i32 0, i32 0
  store ptr %18, ptr %19, align 8
  br label %20

20:                                               ; preds = %31, %3
  %21 = call noundef zeroext i1 @_ZN9__gnu_cxxneIPKSt4pairIN5Yosys5RTLIL7SigSpecES4_ESt6vectorIS5_SaIS5_EEEEbRKNS_17__normal_iteratorIT_T0_EESG_(ptr noundef nonnull align 8 dereferenceable(8) %8, ptr noundef nonnull align 8 dereferenceable(8) %9) #3
  br i1 %21, label %23, label %22

22:                                               ; preds = %20
  call void @llvm.lifetime.end.p0(i64 8, ptr %9) #3
  call void @llvm.lifetime.end.p0(i64 8, ptr %8) #3
  call void @llvm.lifetime.end.p0(i64 8, ptr %7) #3
  br label %33

23:                                               ; preds = %20
  call void @llvm.lifetime.start.p0(i64 8, ptr %10) #3
  %24 = call noundef nonnull align 8 dereferenceable(112) ptr @_ZNK9__gnu_cxx17__normal_iteratorIPKSt4pairIN5Yosys5RTLIL7SigSpecES4_ESt6vectorIS5_SaIS5_EEEdeEv(ptr noundef nonnull align 8 dereferenceable(8) %8) #3
  store ptr %24, ptr %10, align 8, !tbaa !104
  %25 = load ptr, ptr %10, align 8, !tbaa !104
  %26 = getelementptr inbounds nuw %"struct.std::pair.125", ptr %25, i32 0, i32 0
  %27 = call noundef ptr @_ZN5Yosys10log_signalERKNS_5RTLIL7SigSpecEb(ptr noundef nonnull align 8 dereferenceable(56) %26, i1 noundef zeroext true)
  %28 = load ptr, ptr %10, align 8, !tbaa !104
  %29 = getelementptr inbounds nuw %"struct.std::pair.125", ptr %28, i32 0, i32 1
  %30 = call noundef ptr @_ZN5Yosys10log_signalERKNS_5RTLIL7SigSpecEb(ptr noundef nonnull align 8 dereferenceable(56) %29, i1 noundef zeroext true)
  call void (ptr, ...) @_ZN5Yosys3logEPKcz(ptr noundef @.str.14, ptr noundef %27, ptr noundef %30)
  call void @llvm.lifetime.end.p0(i64 8, ptr %10) #3
  br label %31

31:                                               ; preds = %23
  %32 = call noundef nonnull align 8 dereferenceable(8) ptr @_ZN9__gnu_cxx17__normal_iteratorIPKSt4pairIN5Yosys5RTLIL7SigSpecES4_ESt6vectorIS5_SaIS5_EEEppEv(ptr noundef nonnull align 8 dereferenceable(8) %8) #3
  br label %20

33:                                               ; preds = %22
  ret void
}