; Function Attrs: mustprogress uwtable
define internal void @_ZN12_GLOBAL__N_112TraceMonitor14notify_connectEPN5Yosys5RTLIL6ModuleERKSt6vectorISt4pairINS2_7SigSpecES7_ESaIS8_EE(ptr nonnull readnone align 8 captures(none) %0, ptr noundef %1, ptr noundef nonnull readonly align 8 captures(none) dereferenceable(24) %2) unnamed_addr #5 align 2 {
  %4 = getelementptr inbounds nuw i8, ptr %1, i64 304
  %5 = tail call noundef ptr @_ZN5Yosys6log_idERKNS_5RTLIL8IdStringE(ptr noundef nonnull align 4 dereferenceable(4) %4)
  tail call void (ptr, ...) @_ZN5Yosys3logEPKcz(ptr noundef nonnull @.str.13, ptr noundef %5)
  %6 = load ptr, ptr %2, align 8, !tbaa !71
  %7 = getelementptr inbounds nuw i8, ptr %2, i64 8
  %8 = load ptr, ptr %7, align 8, !tbaa !71
  %.not9 = icmp eq ptr %6, %8
  br i1 %.not9, label %._crit_edge, label %.lr.ph

._crit_edge:                                      ; preds = %.lr.ph, %3
  ret void

.lr.ph:                                           ; preds = %3, %.lr.ph
  %.sroa.06.010 = phi ptr [ %12, %.lr.ph ], [ %6, %3 ]
  %9 = tail call noundef ptr @_ZN5Yosys10log_signalERKNS_5RTLIL7SigSpecEb(ptr noundef nonnull align 8 dereferenceable(56) %.sroa.06.010, i1 noundef zeroext true)
  %10 = getelementptr inbounds nuw i8, ptr %.sroa.06.010, i64 56
  %11 = tail call noundef ptr @_ZN5Yosys10log_signalERKNS_5RTLIL7SigSpecEb(ptr noundef nonnull align 8 dereferenceable(56) %10, i1 noundef zeroext true)
  tail call void (ptr, ...) @_ZN5Yosys3logEPKcz(ptr noundef nonnull @.str.14, ptr noundef %9, ptr noundef %11)
  %12 = getelementptr inbounds nuw i8, ptr %.sroa.06.010, i64 112
  %.not = icmp eq ptr %12, %8
  br i1 %.not, label %._crit_edge, label %.lr.ph
}